; Function Attrs: mustprogress uwtable
define noundef i64 @_ZN5draco11GetFileSizeERKNSt7__cxx1112basic_stringIcSt11char_traitsIcESaIcEEE(ptr noundef nonnull align 8 dereferenceable(32) %0) local_unnamed_addr #3 personality ptr @__gxx_personality_v0 {
  %2 = alloca %"class.std::unique_ptr", align 8
  call void @_ZN5draco17FileReaderFactory10OpenReaderERKNSt7__cxx1112basic_stringIcSt11char_traitsIcESaIcEEE(ptr dead_on_unwind nonnull writable sret(%"class.std::unique_ptr") align 8 %2, ptr noundef nonnull align 8 dereferenceable(32) %0)
  %3 = load ptr, ptr %2, align 8
  %.not.i = icmp eq ptr %3, null
  br i1 %.not.i, label %_ZNSt10unique_ptrIN5draco19FileReaderInterfaceESt14default_deleteIS1_EED2Ev.exit6, label %4

4:                                                ; preds = %1
  %5 = load ptr, ptr %3, align 8
  %6 = getelementptr inbounds nuw i8, ptr %5, i64 32
  %7 = load ptr, ptr %6, align 8
  %8 = invoke noundef i64 %7(ptr noundef nonnull align 8 dereferenceable(8) %3)
          to label %15 unwind label %9

9:                                                ; preds = %4
  %10 = landingpad { ptr, i32 }
          cleanup
  %11 = load ptr, ptr %2, align 8
  %.not.i3 = icmp eq ptr %11, null
  br i1 %.not.i3, label %_ZNSt10unique_ptrIN5draco19FileReaderInterfaceESt14default_deleteIS1_EED2Ev.exit, label %_ZNKSt14default_deleteIN5draco19FileReaderInterfaceEEclEPS1_.exit.i

_ZNKSt14default_deleteIN5draco19FileReaderInterfaceEEclEPS1_.exit.i: ; preds = %9
  %12 = load ptr, ptr %11, align 8
  %13 = getelementptr inbounds nuw i8, ptr %12, i64 8
  %14 = load ptr, ptr %13, align 8
  call void %14(ptr noundef nonnull align 8 dereferenceable(8) %11) #11
  br label %_ZNSt10unique_ptrIN5draco19FileReaderInterfaceESt14default_deleteIS1_EED2Ev.exit

_ZNSt10unique_ptrIN5draco19FileReaderInterfaceESt14default_deleteIS1_EED2Ev.exit: ; preds = %9, %_ZNKSt14default_deleteIN5draco19FileReaderInterfaceEEclEPS1_.exit.i
  resume { ptr, i32 } %10

15:                                               ; preds = %4
  %.pr = load ptr, ptr %2, align 8
  %.not.i4 = icmp eq ptr %.pr, null
  br i1 %.not.i4, label %_ZNSt10unique_ptrIN5draco19FileReaderInterfaceESt14default_deleteIS1_EED2Ev.exit6, label %_ZNKSt14default_deleteIN5draco19FileReaderInterfaceEEclEPS1_.exit.i5

_ZNKSt14default_deleteIN5draco19FileReaderInterfaceEEclEPS1_.exit.i5: ; preds = %15
  %16 = load ptr, ptr %.pr, align 8
  %17 = getelementptr inbounds nuw i8, ptr %16, i64 8
  %18 = load ptr, ptr %17, align 8
  call void %18(ptr noundef nonnull align 8 dereferenceable(8) %.pr) #11
  br label %_ZNSt10unique_ptrIN5draco19FileReaderInterfaceESt14default_deleteIS1_EED2Ev.exit6

_ZNSt10unique_ptrIN5draco19FileReaderInterfaceESt14default_deleteIS1_EED2Ev.exit6: ; preds = %1, %15, %_ZNKSt14default_deleteIN5draco19FileReaderInterfaceEEclEPS1_.exit.i5
  %.09 = phi i64 [ %8, %15 ], [ %8, %_ZNKSt14default_deleteIN5draco19FileReaderInterfaceEEclEPS1_.exit.i5 ], [ 0, %1 ]
  ret i64 %.09
}